Certificate:
    Data:
        Version: 3 (0x2)
        Serial Number:
            eb:30:13:97:ae:7a:25:01:4c:e6:40:b8:c4:a8:c4:06
        Signature Algorithm: sha256WithRSAEncryption
        Issuer: CN=Easy-RSA CA
        Validity
            Not Before: Apr  5 01:56:19 2025 GMT
            Not After : Jul  9 01:56:19 2027 GMT
        Subject: CN=client1.domain.tld
        Subject Public Key Info:
            Public Key Algorithm: rsaEncryption
                Public-Key: (2048 bit)
                Modulus:
                    00:af:d5:fa:ac:31:95:b8:9e:24:23:0c:e7:11:3f:
                    4c:d4:d8:8c:b6:e5:29:46:2c:a4:65:ac:f8:e4:14:
                    66:4b:91:bc:40:d6:58:03:89:9a:e1:25:4a:b2:ad:
                    a6:f2:89:df:60:d5:0c:a1:35:c7:45:b7:09:f0:5f:
                    d8:1f:d9:d3:ea:63:a4:5b:0b:23:4b:82:e5:bb:3f:
                    c4:d5:1b:df:fd:bc:25:f9:be:9a:35:eb:d7:72:03:
                    67:01:f6:90:22:c2:d3:54:23:b6:8c:0f:4f:b1:14:
                    37:af:23:69:a1:b4:e1:da:ff:f9:6e:a7:72:11:77:
                    a8:34:c0:05:bc:13:31:2b:93:18:ac:e2:3d:e9:48:
                    20:20:00:e0:1b:fd:fc:20:47:a1:5f:86:c1:ef:cd:
                    29:fa:49:1c:b1:16:68:35:e5:00:b5:30:ae:08:61:
                    5d:c0:96:c8:8c:4b:31:98:86:4a:67:10:1e:ed:80:
                    0c:b1:97:ea:b8:37:70:0b:02:35:d0:8d:da:9e:9a:
                    77:d7:6e:5c:ff:34:06:80:07:42:41:8a:5f:85:8c:
                    ad:b5:7b:2f:4c:59:11:50:38:db:07:25:11:64:90:
                    96:33:38:d7:d4:0d:14:06:2b:cc:21:7b:a2:9c:ae:
                    62:1d:eb:55:8a:f5:f0:64:22:b7:d3:72:41:84:c3:
                    29:17
                Exponent: 65537 (0x10001)
        X509v3 extensions:
            X509v3 Basic Constraints: 
                CA:FALSE
            X509v3 Subject Key Identifier: 
                F7:13:D3:E2:89:2F:25:9B:A2:DE:23:14:3C:8B:E3:90:35:B7:2B:8F
            X509v3 Authority Key Identifier: 
                keyid:12:88:AE:6B:CC:33:DB:7C:BE:CC:12:73:74:B7:AC:0A:0A:37:46:ED
                DirName:/CN=Easy-RSA CA
                serial:6D:F5:C4:90:8D:5B:9B:6B:A7:C9:DC:3A:FC:60:E9:BE:6E:8D:95:B3
            X509v3 Extended Key Usage: 
                TLS Web Client Authentication
            X509v3 Key Usage: 
                Digital Signature
    Signature Algorithm: sha256WithRSAEncryption
    Signature Value:
        35:5d:de:25:c7:4d:1c:be:54:bc:d6:02:fc:46:02:bf:92:a1:
        55:c3:43:c1:a4:22:f6:91:f3:04:4c:86:6b:d2:5e:4c:98:95:
        9f:4b:d4:6d:a8:b8:11:fd:93:b2:cd:ac:a2:c9:e9:a2:50:e2:
        0e:08:bf:9c:59:73:69:ae:d9:97:9a:fb:11:8b:a1:60:86:ed:
        5f:ab:9b:cb:f3:52:04:9c:02:6e:6b:68:ce:65:b7:6f:ce:85:
        fd:99:26:d5:8c:08:c9:91:5d:d0:06:e8:29:16:ec:39:2e:17:
        d2:4f:fe:05:c5:6e:5d:33:7b:38:55:2b:6a:30:61:32:89:0c:
        58:a5:21:84:c4:7c:f1:11:1c:71:f6:06:39:2b:d0:3c:5b:61:
        29:63:54:51:1c:6f:a8:89:b2:75:b6:e0:e7:98:a2:45:4c:39:
        b8:b8:08:f1:ad:b9:19:ad:c0:d6:30:12:57:03:6f:ce:26:c7:
        d9:1a:d9:69:a1:73:ba:8a:56:bd:18:de:9a:84:fe:c6:00:96:
        bb:88:94:de:c4:8c:de:53:0f:db:ee:c4:4c:bd:6d:8d:27:33:
        b3:83:18:97:22:fc:d3:0f:f3:92:f1:eb:24:a5:af:4a:41:8e:
        ba:b6:24:a4:bc:fa:17:f2:4e:47:33:bd:1d:f7:14:98:19:64:
        91:89:4b:7a
-----BEGIN CERTIFICATE-----
MIIDYTCCAkmgAwIBAgIRAOswE5eueiUBTOZAuMSoxAYwDQYJKoZIhvcNAQELBQAw
FjEUMBIGA1UEAwwLRWFzeS1SU0EgQ0EwHhcNMjUwNDA1MDE1NjE5WhcNMjcwNzA5
MDE1NjE5WjAdMRswGQYDVQQDDBJjbGllbnQxLmRvbWFpbi50bGQwggEiMA0GCSqG
SIb3DQEBAQUAA4IBDwAwggEKAoIBAQCv1fqsMZW4niQjDOcRP0zU2Iy25SlGLKRl
rPjkFGZLkbxA1lgDiZrhJUqyrabyid9g1QyhNcdFtwnwX9gf2dPqY6RbCyNLguW7
P8TVG9/9vCX5vpo169dyA2cB9pAiwtNUI7aMD0+xFDevI2mhtOHa//lup3IRd6g0
wAW8EzErkxis4j3pSCAgAOAb/fwgR6FfhsHvzSn6SRyxFmg15QC1MK4IYV3AlsiM
SzGYhkpnEB7tgAyxl+q4N3ALAjXQjdqemnfXblz/NAaAB0JBil+FjK21ey9MWRFQ
ONsHJRFkkJYzONfUDRQGK8whe6KcrmId61WK9fBkIrfTckGEwykXAgMBAAGjgaIw
gZ8wCQYDVR0TBAIwADAdBgNVHQ4EFgQU9xPT4okvJZui3iMUPIvjkDW3K48wUQYD
VR0jBEowSIAUEoiua8wz23y+zBJzdLesCgo3Ru2hGqQYMBYxFDASBgNVBAMMC0Vh
c3ktUlNBIENBghRt9cSQjVuba6fJ3Dr8YOm+bo2VszATBgNVHSUEDDAKBggrBgEF
BQcDAjALBgNVHQ8EBAMCB4AwDQYJKoZIhvcNAQELBQADggEBADVd3iXHTRy+VLzW
AvxGAr+SoVXDQ8GkIvaR8wRMhmvSXkyYlZ9L1G2ouBH9k7LNrKLJ6aJQ4g4Iv5xZ
c2mu2Zea+xGLoWCG7V+rm8vzUgScAm5raM5lt2/Ohf2ZJtWMCMmRXdAG6CkW7Dku
F9JP/gXFbl0zezhVK2owYTKJDFilIYTEfPERHHH2Bjkr0DxbYSljVFEcb6iJsnW2
4OeYokVMObi4CPGtuRmtwNYwElcDb84mx9ka2Wmhc7qKVr0Y3pqE/sYAlruIlN7E
jN5TD9vuxEy9bY0nM7ODGJci/NMP85Lx6ySlr0pBjrq2JKS8+hfyTkczvR33FJgZ
ZJGJS3o=
-----END CERTIFICATE-----
