Certificate:
    Data:
        Version: 3 (0x2)
        Serial Number:
            01:a9:a5:50:aa:ae:5d:ab:4c:fe:b0:c0:9b:26:2c:9e
        Signature Algorithm: sha256WithRSAEncryption
        Issuer: CN=Easy-RSA CA
        Validity
            Not Before: Apr  5 01:56:07 2025 GMT
            Not After : Jul  9 01:56:07 2027 GMT
        Subject: CN=server
        Subject Public Key Info:
            Public Key Algorithm: rsaEncryption
                Public-Key: (2048 bit)
                Modulus:
                    00:9b:1b:fb:55:6b:1b:5b:39:dd:da:f6:86:78:3b:
                    ba:ba:d0:28:fd:bd:5a:19:37:f4:d4:29:56:dc:41:
                    d1:4b:5d:9e:f5:a7:1f:8d:c2:33:e0:97:21:63:72:
                    53:4b:66:ca:96:45:7e:b2:86:aa:83:9c:ab:b2:d3:
                    f2:f1:ec:01:fd:3f:66:9a:d2:99:c8:1c:06:b7:08:
                    33:bf:11:1a:06:ae:f3:e8:fa:36:19:d1:66:02:09:
                    e5:47:da:5a:1c:ce:3d:da:ec:b0:db:4a:32:a4:1a:
                    bb:e7:a6:97:69:ad:50:04:4b:ea:f5:ee:73:ec:f1:
                    e0:fd:87:3c:40:b9:88:ff:55:b2:a5:c3:6c:d0:9f:
                    76:11:b4:36:ba:3b:b5:1a:de:fb:31:fd:3a:0c:6f:
                    13:8a:44:e5:ed:6c:15:bd:42:97:f6:48:5d:36:3f:
                    72:aa:a4:a9:12:1b:6a:83:12:ce:8c:1c:ce:50:06:
                    86:c6:20:3f:51:0d:0c:f9:f0:63:12:6f:2e:4a:9a:
                    a6:a2:2b:eb:45:37:ca:2c:ca:4b:a9:2d:7f:65:c1:
                    a1:49:d5:24:ef:69:dd:f8:50:de:22:de:80:de:32:
                    b0:cb:60:81:17:e9:1e:dd:da:d8:89:12:ad:ad:09:
                    bc:69:2d:e9:a3:a5:65:52:f9:ed:17:44:f0:b8:f8:
                    c7:4b
                Exponent: 65537 (0x10001)
        X509v3 extensions:
            X509v3 Basic Constraints: 
                CA:FALSE
            X509v3 Subject Key Identifier: 
                42:56:3B:F2:AF:CD:D1:5F:32:53:A3:84:5C:17:7B:AB:69:CB:3C:20
            X509v3 Authority Key Identifier: 
                keyid:12:88:AE:6B:CC:33:DB:7C:BE:CC:12:73:74:B7:AC:0A:0A:37:46:ED
                DirName:/CN=Easy-RSA CA
                serial:6D:F5:C4:90:8D:5B:9B:6B:A7:C9:DC:3A:FC:60:E9:BE:6E:8D:95:B3
            X509v3 Extended Key Usage: 
                TLS Web Server Authentication
            X509v3 Key Usage: 
                Digital Signature, Key Encipherment
            X509v3 Subject Alternative Name: 
                DNS:server
    Signature Algorithm: sha256WithRSAEncryption
    Signature Value:
        e0:a3:04:37:4d:07:60:61:f3:80:c0:9a:9e:43:7e:6b:69:f3:
        23:0e:49:a7:2f:bb:05:b1:06:73:e1:e0:af:a9:48:f1:cd:f4:
        23:aa:c8:9e:3d:7c:be:c6:40:33:59:8d:11:0b:b5:97:8b:b9:
        6f:ca:96:8e:33:74:58:84:fc:0e:31:7f:aa:59:6e:db:06:6c:
        7c:80:9f:c5:88:41:94:20:69:13:72:98:24:3c:98:1b:cd:74:
        3f:a1:25:d7:45:89:f5:77:90:b1:f4:0c:4d:e0:0f:b2:1c:cc:
        b9:55:5d:38:1b:2a:64:ef:d7:9d:b3:14:85:df:45:42:56:67:
        3d:3b:ce:c4:c2:14:66:69:51:2c:4c:bc:43:4b:d5:38:8b:a3:
        75:23:50:0f:1a:ce:63:cb:49:d5:b9:8c:da:9d:a4:57:fc:3b:
        b9:a6:6c:00:bf:9e:47:64:44:7b:d1:5b:41:df:0c:8c:03:98:
        b5:59:f5:12:f5:82:df:2c:02:f9:fb:48:27:f7:b5:08:80:b6:
        bc:f1:58:60:ad:a4:9c:0a:b3:ee:c8:79:b1:c7:ec:6c:af:3e:
        f3:0d:f6:32:d5:52:6d:68:7c:c9:ac:ae:a2:13:c0:e6:0f:46:
        a6:d5:91:ec:4d:c2:85:42:ab:20:0f:da:c7:32:e3:42:5f:26:
        a6:0d:2d:86
-----BEGIN CERTIFICATE-----
MIIDZzCCAk+gAwIBAgIQAamlUKquXatM/rDAmyYsnjANBgkqhkiG9w0BAQsFADAW
MRQwEgYDVQQDDAtFYXN5LVJTQSBDQTAeFw0yNTA0MDUwMTU2MDdaFw0yNzA3MDkw
MTU2MDdaMBExDzANBgNVBAMMBnNlcnZlcjCCASIwDQYJKoZIhvcNAQEBBQADggEP
ADCCAQoCggEBAJsb+1VrG1s53dr2hng7urrQKP29Whk39NQpVtxB0UtdnvWnH43C
M+CXIWNyU0tmypZFfrKGqoOcq7LT8vHsAf0/ZprSmcgcBrcIM78RGgau8+j6NhnR
ZgIJ5UfaWhzOPdrssNtKMqQau+eml2mtUARL6vXuc+zx4P2HPEC5iP9VsqXDbNCf
dhG0Nro7tRre+zH9OgxvE4pE5e1sFb1Cl/ZIXTY/cqqkqRIbaoMSzowczlAGhsYg
P1ENDPnwYxJvLkqapqIr60U3yizKS6ktf2XBoUnVJO9p3fhQ3iLegN4ysMtggRfp
Ht3a2IkSra0JvGkt6aOlZVL57RdE8Lj4x0sCAwEAAaOBtTCBsjAJBgNVHRMEAjAA
MB0GA1UdDgQWBBRCVjvyr83RXzJTo4RcF3uracs8IDBRBgNVHSMESjBIgBQSiK5r
zDPbfL7MEnN0t6wKCjdG7aEapBgwFjEUMBIGA1UEAwwLRWFzeS1SU0EgQ0GCFG31
xJCNW5trp8ncOvxg6b5ujZWzMBMGA1UdJQQMMAoGCCsGAQUFBwMBMAsGA1UdDwQE
AwIFoDARBgNVHREECjAIggZzZXJ2ZXIwDQYJKoZIhvcNAQELBQADggEBAOCjBDdN
B2Bh84DAmp5Dfmtp8yMOSacvuwWxBnPh4K+pSPHN9COqyJ49fL7GQDNZjRELtZeL
uW/Klo4zdFiE/A4xf6pZbtsGbHyAn8WIQZQgaRNymCQ8mBvNdD+hJddFifV3kLH0
DE3gD7IczLlVXTgbKmTv152zFIXfRUJWZz07zsTCFGZpUSxMvENL1TiLo3UjUA8a
zmPLSdW5jNqdpFf8O7mmbAC/nkdkRHvRW0HfDIwDmLVZ9RL1gt8sAvn7SCf3tQiA
trzxWGCtpJwKs+7IebHH7GyvPvMN9jLVUm1ofMmsrqITwOYPRqbVkexNwoVCqyAP
2scy40JfJqYNLYY=
-----END CERTIFICATE-----
